; Function Attrs: nounwind uwtable
define internal fastcc range(i32 0, 2) i32 @quic_mutation_allowed(ptr noundef readonly captures(none) %0, i32 noundef range(i32 0, 2) %1) unnamed_addr #0 {
  %3 = getelementptr inbounds nuw i8, ptr %0, i64 336
  %4 = load i16, ptr %3, align 8
  %5 = and i16 %4, 32
  %.not = icmp eq i16 %5, 0
  br i1 %.not, label %6, label %15

6:                                                ; preds = %2
  %7 = getelementptr inbounds nuw i8, ptr %0, i64 160
  %8 = load ptr, ptr %7, align 8, !tbaa !113
  %9 = tail call i32 @ossl_quic_channel_is_term_any(ptr noundef %8) #12
  %.not4 = icmp eq i32 %9, 0
  br i1 %.not4, label %10, label %15

10:                                               ; preds = %6
  %.not5 = icmp eq i32 %1, 0
  br i1 %.not5, label %14, label %11

11:                                               ; preds = %10
  %12 = load ptr, ptr %7, align 8, !tbaa !113
  %13 = tail call i32 @ossl_quic_channel_is_active(ptr noundef %12) #12
  %.not6 = icmp eq i32 %13, 0
  br i1 %.not6, label %15, label %14

14:                                               ; preds = %11, %10
  br label %15

15:                                               ; preds = %11, %2, %6, %14
  %.0 = phi i32 [ 1, %14 ], [ 0, %6 ], [ 0, %2 ], [ 0, %11 ]
  ret i32 %.0
}